target datalayout = "e-m:e-p270:32:32-p271:32:32-p272:64:64-i64:64-i128:128-f80:128-n8:16:32:64-S128"
target triple = "x86_64-pc-linux-gnu"

%struct.Mpm_Dsd_t_ = type { i32, i32, i32, i64, ptr }
%struct.Mpm_Man_t_ = type { ptr, ptr, i32, i32, i32, ptr, i32, i32, i64, i64, ptr, i32, [33 x ptr], [33 x %struct.Mpm_Uni_t_], %struct.Vec_Ptr_t_, ptr, ptr, [3 x i32], [3 x [33 x ptr]], [3 x [33 x i64]], ptr, i32, i32, [64 x i64], [64 x i64], [64 x i64], [64 x i64], ptr, ptr, ptr, ptr, [720 x [6 x i8]], ptr, [3 x i32], [3 x i32], ptr, %struct.Vec_Int_t_, %struct.Vec_Int_t_, %struct.Vec_Int_t_, %struct.Vec_Int_t_, %struct.Vec_Int_t_, %struct.Vec_Int_t_, %struct.Vec_Int_t_, %struct.Vec_Int_t_, %struct.Vec_Int_t_, [600 x i32], i32, i32, i32, i32, i32, i64, i64, i64, i64, i64, i64, i64 }
%struct.Mpm_Uni_t_ = type { i32, i32, i32, i32, i64, i32, %struct.Mpm_Cut_t_, [11 x i32] }
%struct.Mpm_Cut_t_ = type { i32, i32, [1 x i32] }
%struct.Vec_Ptr_t_ = type { i32, i32, ptr }
%struct.Vec_Int_t_ = type { i32, i32, ptr }
%struct.Mpm_Par_t_ = type { ptr, ptr, i32, i32, i32, i32, i32, i32, i32, i32, i32, i32, i32, i32, i32 }

@.str = private unnamed_addr constant [9 x i8] c"%5d  :  \00", align 1
@.str.1 = private unnamed_addr constant [9 x i8] c"%-20s   \00", align 1
@.str.2 = private unnamed_addr constant [5 x i8] c"%8d \00", align 1
@.str.3 = private unnamed_addr constant [2 x i8] c"\0A\00", align 1
@.str.4 = private unnamed_addr constant [33 x i8] c"Unused classes = %d (%.2f %%).  \00", align 1
@.str.5 = private unnamed_addr constant [31 x i8] c"Non-DSD cuts = %d (%.2f %%).  \00", align 1
@.str.6 = private unnamed_addr constant [31 x i8] c"No-match cuts = %d (%.2f %%).\0A\00", align 1

; Function Attrs: nounwind uwtable
define void @Mpm_ManPrintDsdStats(ptr noundef %0) #0 {
  %2 = alloca ptr, align 8
  %3 = alloca i32, align 4
  %4 = alloca i32, align 4
  store ptr %0, ptr %2, align 8, !tbaa !23
  call void @llvm.lifetime.start.p0(i64 4, ptr %3) #12
  call void @llvm.lifetime.start.p0(i64 4, ptr %4) #12
  store i32 0, ptr %4, align 4, !tbaa !3
  store i32 0, ptr %3, align 4, !tbaa !3
  br label %5

5:                                                ; preds = %47, %1
  %6 = load i32, ptr %3, align 4, !tbaa !3
  %7 = icmp slt i32 %6, 595
  br i1 %7, label %8, label %50

8:                                                ; preds = %5
  %9 = load ptr, ptr %2, align 8, !tbaa !23
  %10 = getelementptr inbounds nuw %struct.Mpm_Man_t_, ptr %9, i32 0, i32 45
  %11 = load i32, ptr %3, align 4, !tbaa !3
  %12 = sext i32 %11 to i64
  %13 = getelementptr inbounds [600 x i32], ptr %10, i64 0, i64 %12
  %14 = load i32, ptr %13, align 4, !tbaa !3
  %15 = icmp eq i32 %14, 0
  br i1 %15, label %16, label %19

16:                                               ; preds = %8
  %17 = load i32, ptr %4, align 4, !tbaa !3
  %18 = add nsw i32 %17, 1
  store i32 %18, ptr %4, align 4, !tbaa !3
  br label %47

19:                                               ; preds = %8
  %20 = load ptr, ptr %2, align 8, !tbaa !23
  %21 = getelementptr inbounds nuw %struct.Mpm_Man_t_, ptr %20, i32 0, i32 1
  %22 = load ptr, ptr %21, align 8, !tbaa !25
  %23 = getelementptr inbounds nuw %struct.Mpm_Par_t_, ptr %22, i32 0, i32 14
  %24 = load i32, ptr %23, align 8, !tbaa !40
  %25 = icmp ne i32 %24, 0
  br i1 %25, label %26, label %46

26:                                               ; preds = %19
  %27 = load i32, ptr %3, align 4, !tbaa !3
  %28 = call i32 (ptr, ...) @printf(ptr noundef @.str, i32 noundef %27)
  %29 = load ptr, ptr %2, align 8, !tbaa !23
  %30 = getelementptr inbounds nuw %struct.Mpm_Man_t_, ptr %29, i32 0, i32 27
  %31 = load ptr, ptr %30, align 8, !tbaa !42
  %32 = load i32, ptr %3, align 4, !tbaa !3
  %33 = sext i32 %32 to i64
  %34 = getelementptr inbounds %struct.Mpm_Dsd_t_, ptr %31, i64 %33
  %35 = getelementptr inbounds nuw %struct.Mpm_Dsd_t_, ptr %34, i32 0, i32 4
  %36 = load ptr, ptr %35, align 8, !tbaa !43
  %37 = call i32 (ptr, ...) @printf(ptr noundef @.str.1, ptr noundef %36)
  %38 = load ptr, ptr %2, align 8, !tbaa !23
  %39 = getelementptr inbounds nuw %struct.Mpm_Man_t_, ptr %38, i32 0, i32 45
  %40 = load i32, ptr %3, align 4, !tbaa !3
  %41 = sext i32 %40 to i64
  %42 = getelementptr inbounds [600 x i32], ptr %39, i64 0, i64 %41
  %43 = load i32, ptr %42, align 4, !tbaa !3
  %44 = call i32 (ptr, ...) @printf(ptr noundef @.str.2, i32 noundef %43)
  %45 = call i32 (ptr, ...) @printf(ptr noundef @.str.3)
  br label %46

46:                                               ; preds = %26, %19
  br label %47

47:                                               ; preds = %46, %16
  %48 = load i32, ptr %3, align 4, !tbaa !3
  %49 = add nsw i32 %48, 1
  store i32 %49, ptr %3, align 4, !tbaa !3
  br label %5, !llvm.loop !44

50:                                               ; preds = %5
  %51 = load i32, ptr %4, align 4, !tbaa !3
  %52 = load i32, ptr %4, align 4, !tbaa !3
  %53 = sitofp i32 %52 to double
  %54 = fmul double 1.000000e+02, %53
  %55 = fdiv double %54, 5.950000e+02
  %56 = call i32 (ptr, ...) @printf(ptr noundef @.str.4, i32 noundef %51, double noundef %55)
  %57 = load ptr, ptr %2, align 8, !tbaa !23
  %58 = getelementptr inbounds nuw %struct.Mpm_Man_t_, ptr %57, i32 0, i32 46
  %59 = load i32, ptr %58, align 8, !tbaa !45
  %60 = load ptr, ptr %2, align 8, !tbaa !23
  %61 = getelementptr inbounds nuw %struct.Mpm_Man_t_, ptr %60, i32 0, i32 46
  %62 = load i32, ptr %61, align 8, !tbaa !45
  %63 = sitofp i32 %62 to double
  %64 = fmul double 1.000000e+02, %63
  %65 = load ptr, ptr %2, align 8, !tbaa !23
  %66 = getelementptr inbounds nuw %struct.Mpm_Man_t_, ptr %65, i32 0, i32 49
  %67 = load i32, ptr %66, align 4, !tbaa !46
  %68 = sitofp i32 %67 to double
  %69 = fdiv double %64, %68
  %70 = call i32 (ptr, ...) @printf(ptr noundef @.str.5, i32 noundef %59, double noundef %69)
  %71 = load ptr, ptr %2, align 8, !tbaa !23
  %72 = getelementptr inbounds nuw %struct.Mpm_Man_t_, ptr %71, i32 0, i32 47
  %73 = load i32, ptr %72, align 4, !tbaa !47
  %74 = load ptr, ptr %2, align 8, !tbaa !23
  %75 = getelementptr inbounds nuw %struct.Mpm_Man_t_, ptr %74, i32 0, i32 47
  %76 = load i32, ptr %75, align 4, !tbaa !47
  %77 = sitofp i32 %76 to double
  %78 = fmul double 1.000000e+02, %77
  %79 = load ptr, ptr %2, align 8, !tbaa !23
  %80 = getelementptr inbounds nuw %struct.Mpm_Man_t_, ptr %79, i32 0, i32 49
  %81 = load i32, ptr %80, align 4, !tbaa !46
  %82 = sitofp i32 %81 to double
  %83 = fdiv double %78, %82
  %84 = call i32 (ptr, ...) @printf(ptr noundef @.str.6, i32 noundef %73, double noundef %83)
  call void @llvm.lifetime.end.p0(i64 4, ptr %4) #12
  call void @llvm.lifetime.end.p0(i64 4, ptr %3) #12
  ret void
}