; Function Attrs: nofree nounwind uwtable
define void @Mpm_ManPrintDsdStats(ptr noundef readonly captures(none) %0) local_unnamed_addr #2 {
  %2 = getelementptr inbounds nuw i8, ptr %0, i64 11480
  %3 = getelementptr inbounds nuw i8, ptr %0, i64 8
  %4 = getelementptr inbounds nuw i8, ptr %0, i64 6944
  br label %5

5:                                                ; preds = %1, %24
  %indvars.iv = phi i64 [ 0, %1 ], [ %indvars.iv.next, %24 ]
  %.020 = phi i32 [ 0, %1 ], [ %.1, %24 ]
  %6 = getelementptr inbounds nuw [600 x i32], ptr %2, i64 0, i64 %indvars.iv
  %7 = load i32, ptr %6, align 4, !tbaa !20
  %8 = icmp eq i32 %7, 0
  br i1 %8, label %9, label %11

9:                                                ; preds = %5
  %10 = add nsw i32 %.020, 1
  br label %24

11:                                               ; preds = %5
  %12 = load ptr, ptr %3, align 8, !tbaa !21
  %13 = getelementptr inbounds nuw i8, ptr %12, i64 64
  %14 = load i32, ptr %13, align 8, !tbaa !37
  %.not = icmp eq i32 %14, 0
  br i1 %.not, label %24, label %15

15:                                               ; preds = %11
  %16 = trunc nuw nsw i64 %indvars.iv to i32
  %17 = tail call i32 (ptr, ...) @printf(ptr noundef nonnull dereferenceable(1) @.str, i32 noundef %16)
  %18 = load ptr, ptr %4, align 8, !tbaa !39
  %19 = getelementptr inbounds nuw %struct.Mpm_Dsd_t_, ptr %18, i64 %indvars.iv, i32 4
  %20 = load ptr, ptr %19, align 8, !tbaa !40
  %21 = tail call i32 (ptr, ...) @printf(ptr noundef nonnull dereferenceable(1) @.str.1, ptr noundef %20)
  %22 = load i32, ptr %6, align 4, !tbaa !20
  %23 = tail call i32 (ptr, ...) @printf(ptr noundef nonnull dereferenceable(1) @.str.2, i32 noundef %22)
  %putchar = tail call i32 @putchar(i32 10)
  br label %24

24:                                               ; preds = %11, %15, %9
  %.1 = phi i32 [ %10, %9 ], [ %.020, %15 ], [ %.020, %11 ]
  %indvars.iv.next = add nuw nsw i64 %indvars.iv, 1
  %exitcond.not = icmp eq i64 %indvars.iv.next, 595
  br i1 %exitcond.not, label %25, label %5, !llvm.loop !41

25:                                               ; preds = %24
  %26 = sitofp i32 %.1 to double
  %27 = fmul double %26, 1.000000e+02
  %28 = fdiv double %27, 5.950000e+02
  %29 = tail call i32 (ptr, ...) @printf(ptr noundef nonnull dereferenceable(1) @.str.4, i32 noundef %.1, double noundef %28)
  %30 = getelementptr inbounds nuw i8, ptr %0, i64 13880
  %31 = load i32, ptr %30, align 8, !tbaa !42
  %32 = sitofp i32 %31 to double
  %33 = fmul double %32, 1.000000e+02
  %34 = getelementptr inbounds nuw i8, ptr %0, i64 13892
  %35 = load i32, ptr %34, align 4, !tbaa !43
  %36 = sitofp i32 %35 to double
  %37 = fdiv double %33, %36
  %38 = tail call i32 (ptr, ...) @printf(ptr noundef nonnull dereferenceable(1) @.str.5, i32 noundef %31, double noundef %37)
  %39 = getelementptr inbounds nuw i8, ptr %0, i64 13884
  %40 = load i32, ptr %39, align 4, !tbaa !44
  %41 = sitofp i32 %40 to double
  %42 = fmul double %41, 1.000000e+02
  %43 = load i32, ptr %34, align 4, !tbaa !43
  %44 = sitofp i32 %43 to double
  %45 = fdiv double %42, %44
  %46 = tail call i32 (ptr, ...) @printf(ptr noundef nonnull dereferenceable(1) @.str.6, i32 noundef %40, double noundef %45)
  ret void
}